; Function Attrs: mustprogress nounwind uwtable
define dso_local void @_ZN4llvm3opt3ArgD2Ev(ptr noundef nonnull align 8 dereferenceable(88) %0) unnamed_addr #0 align 2 {
  %2 = getelementptr inbounds nuw i8, ptr %0, i64 44
  %3 = load i8, ptr %2, align 4
  %4 = and i8 %3, 4
  %.not = icmp eq i8 %4, 0
  br i1 %.not, label %.loopexit, label %5

5:                                                ; preds = %1
  %6 = getelementptr inbounds nuw i8, ptr %0, i64 48
  %7 = tail call noundef i64 @_ZNK4llvm15SmallVectorBaseIjE4sizeEv(ptr noundef nonnull align 8 dereferenceable(16) %6) #9
  %8 = and i64 %7, 4294967295
  %.not56 = icmp eq i64 %8, 0
  br i1 %.not56, label %.loopexit, label %.lr.ph.preheader

.lr.ph.preheader:                                 ; preds = %5
  %9 = and i64 %7, 4294967295
  br label %.lr.ph

.lr.ph:                                           ; preds = %.lr.ph.preheader, %15
  %indvars.iv = phi i64 [ 0, %.lr.ph.preheader ], [ %indvars.iv.next, %15 ]
  %10 = load ptr, ptr %6, align 8
  %11 = getelementptr inbounds ptr, ptr %10, i64 %indvars.iv
  %12 = load ptr, ptr %11, align 8
  %13 = icmp eq ptr %12, null
  br i1 %13, label %15, label %14

14:                                               ; preds = %.lr.ph
  tail call void @_ZdaPv(ptr noundef nonnull %12) #10
  br label %15

15:                                               ; preds = %.lr.ph, %14
  %indvars.iv.next = add nuw nsw i64 %indvars.iv, 1
  %.not5 = icmp eq i64 %indvars.iv.next, %9
  br i1 %.not5, label %.loopexit, label %.lr.ph, !llvm.loop !4

.loopexit:                                        ; preds = %15, %5, %1
  %16 = getelementptr inbounds nuw i8, ptr %0, i64 80
  %17 = load ptr, ptr %16, align 8
  %.not.i = icmp eq ptr %17, null
  br i1 %.not.i, label %_ZNSt10unique_ptrIN4llvm3opt3ArgESt14default_deleteIS2_EED2Ev.exit, label %_ZNKSt14default_deleteIN4llvm3opt3ArgEEclEPS2_.exit.i

_ZNKSt14default_deleteIN4llvm3opt3ArgEEclEPS2_.exit.i: ; preds = %.loopexit
  tail call void @_ZN4llvm3opt3ArgD1Ev(ptr noundef nonnull align 8 dereferenceable(88) %17) #9
  tail call void @_ZdlPvm(ptr noundef nonnull %17, i64 noundef 88) #10
  br label %_ZNSt10unique_ptrIN4llvm3opt3ArgESt14default_deleteIS2_EED2Ev.exit

_ZNSt10unique_ptrIN4llvm3opt3ArgESt14default_deleteIS2_EED2Ev.exit: ; preds = %.loopexit, %_ZNKSt14default_deleteIN4llvm3opt3ArgEEclEPS2_.exit.i
  store ptr null, ptr %16, align 8
  %18 = getelementptr inbounds nuw i8, ptr %0, i64 48
  %19 = tail call noundef i64 @_ZNK4llvm15SmallVectorBaseIjE4sizeEv(ptr noundef nonnull align 8 dereferenceable(16) %18) #9
  %20 = load ptr, ptr %18, align 8
  %21 = getelementptr inbounds i8, ptr %0, i64 64
  %22 = icmp eq ptr %20, %21
  br i1 %22, label %_ZN4llvm11SmallVectorIPKcLj2EED2Ev.exit, label %23

23:                                               ; preds = %_ZNSt10unique_ptrIN4llvm3opt3ArgESt14default_deleteIS2_EED2Ev.exit
  tail call void @free(ptr noundef %20) #9
  br label %_ZN4llvm11SmallVectorIPKcLj2EED2Ev.exit

_ZN4llvm11SmallVectorIPKcLj2EED2Ev.exit:          ; preds = %_ZNSt10unique_ptrIN4llvm3opt3ArgESt14default_deleteIS2_EED2Ev.exit, %23
  ret void
}